; Function Attrs: nounwind uwtable
define range(i32 -1, 1) i32 @H5D__current_cache_size_test(i64 noundef %0, ptr noundef writeonly %1, ptr noundef writeonly %2) local_unnamed_addr #0 {
  %4 = tail call ptr @H5VL_object_verify(i64 noundef %0, i32 noundef 5) #2
  %5 = icmp eq ptr %4, null
  br i1 %5, label %6, label %10

6:                                                ; preds = %3
  %7 = load i64, ptr @H5E_ARGS_g, align 8
  %8 = load i64, ptr @H5E_BADTYPE_g, align 8
  %9 = tail call i32 (ptr, ptr, i32, i64, i64, ptr, ...) @H5E_printf_stack(ptr noundef nonnull @.str, ptr noundef nonnull @__func__.H5D__current_cache_size_test, i32 noundef 280, i64 noundef %7, i64 noundef %8, ptr noundef nonnull @.str.1) #2
  br label %22

10:                                               ; preds = %3
  %.not = icmp eq ptr %1, null
  br i1 %.not, label %16, label %11

11:                                               ; preds = %10
  %12 = getelementptr inbounds i8, ptr %4, i64 48
  %13 = load ptr, ptr %12, align 8
  %14 = getelementptr inbounds i8, ptr %13, i64 3384
  %15 = load i64, ptr %14, align 8
  store i64 %15, ptr %1, align 8
  br label %16

16:                                               ; preds = %11, %10
  %.not11 = icmp eq ptr %2, null
  br i1 %.not11, label %22, label %17

17:                                               ; preds = %16
  %18 = getelementptr inbounds i8, ptr %4, i64 48
  %19 = load ptr, ptr %18, align 8
  %20 = getelementptr inbounds i8, ptr %19, i64 3392
  %21 = load i32, ptr %20, align 8
  store i32 %21, ptr %2, align 4
  br label %22

22:                                               ; preds = %16, %17, %6
  %.0 = phi i32 [ -1, %6 ], [ 0, %17 ], [ 0, %16 ]
  ret i32 %.0
}